target datalayout = "e-m:e-p270:32:32-p271:32:32-p272:64:64-i64:64-i128:128-f80:128-n8:16:32:64-S128"
target triple = "x86_64-pc-linux-gnu"

%struct.AVFilterContext = type { ptr, ptr, ptr, ptr, ptr, i32, ptr, ptr, i32, ptr, ptr, i32, i32, ptr, ptr, ptr, ptr, i32, ptr, i32, i32 }
%struct.ReadEIA608Context = type { ptr, i32, i32, float, i32, i32, i32, i32, i32, ptr, [2 x ptr] }
%struct.AVFilterLink = type { ptr, ptr, ptr, ptr, i32, i32, i32, i32, %struct.AVRational, i32, i32, i32, %struct.AVChannelLayout, %struct.AVRational, ptr, i32, %struct.AVFilterFormatsConfig, %struct.AVFilterFormatsConfig }
%struct.AVChannelLayout = type { i32, i32, %union.anon.1, ptr }
%union.anon.1 = type { i64 }
%struct.AVRational = type { i32, i32 }
%struct.AVFilterFormatsConfig = type { ptr, ptr, ptr, ptr, ptr }
%struct.AVPixFmtDescriptor = type { ptr, i8, i8, i8, i64, [4 x %struct.AVComponentDescriptor], ptr }
%struct.AVComponentDescriptor = type { i32, i32, i32, i32, i32 }

; Function Attrs: nounwind uwtable
define internal i32 @config_input(ptr noundef %0) #1 {
  %2 = alloca i32, align 4
  %3 = alloca ptr, align 8
  %4 = alloca ptr, align 8
  %5 = alloca ptr, align 8
  %6 = alloca ptr, align 8
  %7 = alloca i32, align 4
  store ptr %0, ptr %3, align 8, !tbaa !36
  call void @llvm.lifetime.start.p0(i64 8, ptr %4) #8
  %8 = load ptr, ptr %3, align 8, !tbaa !36
  %9 = getelementptr inbounds nuw %struct.AVFilterLink, ptr %8, i32 0, i32 2
  %10 = load ptr, ptr %9, align 8, !tbaa !40
  store ptr %10, ptr %4, align 8, !tbaa !4
  call void @llvm.lifetime.start.p0(i64 8, ptr %5) #8
  %11 = load ptr, ptr %4, align 8, !tbaa !4
  %12 = getelementptr inbounds nuw %struct.AVFilterContext, ptr %11, i32 0, i32 9
  %13 = load ptr, ptr %12, align 8, !tbaa !9
  store ptr %13, ptr %5, align 8, !tbaa !22
  call void @llvm.lifetime.start.p0(i64 8, ptr %6) #8
  %14 = load ptr, ptr %3, align 8, !tbaa !36
  %15 = getelementptr inbounds nuw %struct.AVFilterLink, ptr %14, i32 0, i32 5
  %16 = load i32, ptr %15, align 4, !tbaa !57
  %17 = call ptr @av_pix_fmt_desc_get(i32 noundef %16)
  store ptr %17, ptr %6, align 8, !tbaa !58
  %18 = load ptr, ptr %6, align 8, !tbaa !58
  %19 = icmp ne ptr %18, null
  br i1 %19, label %21, label %20

20:                                               ; preds = %1
  store i32 -558323010, ptr %2, align 4
  store i32 1, ptr %7, align 4
  br label %52

21:                                               ; preds = %1
  %22 = load ptr, ptr %6, align 8, !tbaa !58
  %23 = getelementptr inbounds nuw %struct.AVPixFmtDescriptor, ptr %22, i32 0, i32 5
  %24 = getelementptr inbounds [4 x %struct.AVComponentDescriptor], ptr %23, i64 0, i64 0
  %25 = getelementptr inbounds nuw %struct.AVComponentDescriptor, ptr %24, i32 0, i32 4
  %26 = load i32, ptr %25, align 8, !tbaa !60
  %27 = load ptr, ptr %5, align 8, !tbaa !22
  %28 = getelementptr inbounds nuw %struct.ReadEIA608Context, ptr %27, i32 0, i32 6
  store i32 %26, ptr %28, align 4, !tbaa !62
  %29 = load ptr, ptr %6, align 8, !tbaa !58
  %30 = getelementptr inbounds nuw %struct.AVPixFmtDescriptor, ptr %29, i32 0, i32 5
  %31 = getelementptr inbounds [4 x %struct.AVComponentDescriptor], ptr %30, i64 0, i64 0
  %32 = getelementptr inbounds nuw %struct.AVComponentDescriptor, ptr %31, i32 0, i32 4
  %33 = load i32, ptr %32, align 8, !tbaa !60
  %34 = shl i32 1, %33
  %35 = sub nsw i32 %34, 1
  %36 = load ptr, ptr %5, align 8, !tbaa !22
  %37 = getelementptr inbounds nuw %struct.ReadEIA608Context, ptr %36, i32 0, i32 7
  store i32 %35, ptr %37, align 8, !tbaa !63
  %38 = load ptr, ptr %5, align 8, !tbaa !22
  %39 = getelementptr inbounds nuw %struct.ReadEIA608Context, ptr %38, i32 0, i32 10
  %40 = getelementptr inbounds [2 x ptr], ptr %39, i64 0, i64 0
  store ptr @read_byte, ptr %40, align 8, !tbaa !64
  %41 = load ptr, ptr %5, align 8, !tbaa !22
  %42 = getelementptr inbounds nuw %struct.ReadEIA608Context, ptr %41, i32 0, i32 10
  %43 = getelementptr inbounds [2 x ptr], ptr %42, i64 0, i64 1
  store ptr @read_word, ptr %43, align 8, !tbaa !64
  %44 = load ptr, ptr %4, align 8, !tbaa !4
  %45 = load ptr, ptr %5, align 8, !tbaa !22
  %46 = getelementptr inbounds nuw %struct.ReadEIA608Context, ptr %45, i32 0, i32 1
  %47 = load i32, ptr %46, align 8, !tbaa !34
  %48 = load ptr, ptr %5, align 8, !tbaa !22
  %49 = getelementptr inbounds nuw %struct.ReadEIA608Context, ptr %48, i32 0, i32 2
  %50 = load i32, ptr %49, align 4, !tbaa !35
  %51 = call i32 @config_filter(ptr noundef %44, i32 noundef %47, i32 noundef %50)
  store i32 %51, ptr %2, align 4
  store i32 1, ptr %7, align 4
  br label %52

52:                                               ; preds = %21, %20
  call void @llvm.lifetime.end.p0(i64 8, ptr %6) #8
  call void @llvm.lifetime.end.p0(i64 8, ptr %5) #8
  call void @llvm.lifetime.end.p0(i64 8, ptr %4) #8
  %53 = load i32, ptr %2, align 4
  ret i32 %53
}