; Function Attrs: nounwind uwtable
define internal range(i32 -558323010, 1) i32 @config_input(ptr noundef readonly captures(none) %0) #1 {
  %2 = getelementptr inbounds nuw i8, ptr %0, i64 16
  %3 = load ptr, ptr %2, align 8, !tbaa !29
  %4 = getelementptr inbounds nuw i8, ptr %3, i64 72
  %5 = load ptr, ptr %4, align 8, !tbaa !4
  %6 = getelementptr inbounds nuw i8, ptr %0, i64 36
  %7 = load i32, ptr %6, align 4, !tbaa !49
  %8 = tail call ptr @av_pix_fmt_desc_get(i32 noundef %7) #10
  %.not = icmp eq ptr %8, null
  br i1 %.not, label %22, label %9

9:                                                ; preds = %1
  %10 = getelementptr inbounds nuw i8, ptr %8, i64 40
  %11 = load i32, ptr %10, align 8, !tbaa !50
  %12 = getelementptr inbounds nuw i8, ptr %5, i64 28
  store i32 %11, ptr %12, align 4, !tbaa !52
  %notmask = shl nsw i32 -1, %11
  %13 = xor i32 %notmask, -1
  %14 = getelementptr inbounds nuw i8, ptr %5, i64 32
  store i32 %13, ptr %14, align 8, !tbaa !53
  %15 = getelementptr inbounds nuw i8, ptr %5, i64 48
  store ptr @read_byte, ptr %15, align 8, !tbaa !54
  %16 = getelementptr inbounds nuw i8, ptr %5, i64 56
  store ptr @read_word, ptr %16, align 8, !tbaa !54
  %17 = getelementptr inbounds nuw i8, ptr %5, i64 8
  %18 = load i32, ptr %17, align 8, !tbaa !27
  %19 = getelementptr inbounds nuw i8, ptr %5, i64 12
  %20 = load i32, ptr %19, align 4, !tbaa !28
  %21 = tail call fastcc i32 @config_filter(ptr noundef nonnull %3, i32 noundef %18, i32 noundef %20)
  br label %22

22:                                               ; preds = %1, %9
  %.0 = phi i32 [ %21, %9 ], [ -558323010, %1 ]
  ret i32 %.0
}